target datalayout = "e-m:e-p270:32:32-p271:32:32-p272:64:64-i64:64-i128:128-f80:128-n8:16:32:64-S128"
target triple = "x86_64-pc-linux-gnu"

%struct.SurfaceDataRasInfo = type { %struct.SurfaceDataBounds, ptr, i32, i32, i32, i32, ptr, ptr, ptr, ptr, ptr, ptr, i32, %union.anon.0 }
%struct.SurfaceDataBounds = type { i32, i32, i32, i32 }
%union.anon.0 = type { ptr, [56 x i8] }

; Function Attrs: nounwind uwtable
define hidden void @Index12GrayToByteIndexedConvert(ptr noundef %0, ptr noundef %1, i32 noundef %2, i32 noundef %3, ptr noundef %4, ptr noundef %5, ptr noundef %6, ptr noundef %7) #0 {
  %9 = alloca ptr, align 8
  %10 = alloca ptr, align 8
  %11 = alloca i32, align 4
  %12 = alloca i32, align 4
  %13 = alloca ptr, align 8
  %14 = alloca ptr, align 8
  %15 = alloca ptr, align 8
  %16 = alloca ptr, align 8
  %17 = alloca ptr, align 8
  %18 = alloca i32, align 4
  %19 = alloca i32, align 4
  %20 = alloca i32, align 4
  %21 = alloca ptr, align 8
  %22 = alloca ptr, align 8
  %23 = alloca ptr, align 8
  %24 = alloca ptr, align 8
  %25 = alloca ptr, align 8
  %26 = alloca ptr, align 8
  %27 = alloca i32, align 4
  %28 = alloca i32, align 4
  %29 = alloca i32, align 4
  %30 = alloca i32, align 4
  %31 = alloca i32, align 4
  %32 = alloca i32, align 4
  store ptr %0, ptr %9, align 8
  store ptr %1, ptr %10, align 8
  store i32 %2, ptr %11, align 4
  store i32 %3, ptr %12, align 4
  store ptr %4, ptr %13, align 8
  store ptr %5, ptr %14, align 8
  store ptr %6, ptr %15, align 8
  store ptr %7, ptr %16, align 8
  %33 = load ptr, ptr %13, align 8
  %34 = getelementptr inbounds %struct.SurfaceDataRasInfo, ptr %33, i32 0, i32 6
  %35 = load ptr, ptr %34, align 8
  store ptr %35, ptr %17, align 8
  br label %36

36:                                               ; preds = %8
  %37 = load ptr, ptr %9, align 8
  store ptr %37, ptr %25, align 8
  %38 = load ptr, ptr %10, align 8
  store ptr %38, ptr %26, align 8
  %39 = load ptr, ptr %13, align 8
  %40 = getelementptr inbounds %struct.SurfaceDataRasInfo, ptr %39, i32 0, i32 4
  %41 = load i32, ptr %40, align 8
  store i32 %41, ptr %27, align 4
  %42 = load ptr, ptr %14, align 8
  %43 = getelementptr inbounds %struct.SurfaceDataRasInfo, ptr %42, i32 0, i32 4
  %44 = load i32, ptr %43, align 8
  store i32 %44, ptr %28, align 4
  br label %45

45:                                               ; preds = %36
  br label %46

46:                                               ; preds = %45
  %47 = load ptr, ptr %14, align 8
  %48 = getelementptr inbounds %struct.SurfaceDataRasInfo, ptr %47, i32 0, i32 0
  %49 = getelementptr inbounds %struct.SurfaceDataBounds, ptr %48, i32 0, i32 1
  %50 = load i32, ptr %49, align 4
  %51 = and i32 %50, 7
  %52 = shl i32 %51, 3
  store i32 %52, ptr %19, align 4
  br label %53

53:                                               ; preds = %46
  %54 = load ptr, ptr %14, align 8
  %55 = getelementptr inbounds %struct.SurfaceDataRasInfo, ptr %54, i32 0, i32 7
  %56 = load ptr, ptr %55, align 8
  store ptr %56, ptr %24, align 8
  %57 = load ptr, ptr %14, align 8
  %58 = getelementptr inbounds %struct.SurfaceDataRasInfo, ptr %57, i32 0, i32 12
  %59 = load i32, ptr %58, align 8
  store i32 %59, ptr %20, align 4
  br label %60

60:                                               ; preds = %53
  %61 = load i32, ptr %11, align 4
  %62 = mul i32 %61, 2
  %63 = load i32, ptr %27, align 4
  %64 = sub i32 %63, %62
  store i32 %64, ptr %27, align 4
  %65 = load i32, ptr %11, align 4
  %66 = mul i32 %65, 1
  %67 = load i32, ptr %28, align 4
  %68 = sub i32 %67, %66
  store i32 %68, ptr %28, align 4
  br label %69

69:                                               ; preds = %255, %60
  %70 = load i32, ptr %11, align 4
  store i32 %70, ptr %29, align 4
  br label %71

71:                                               ; preds = %69
  %72 = load ptr, ptr %14, align 8
  %73 = getelementptr inbounds %struct.SurfaceDataRasInfo, ptr %72, i32 0, i32 8
  %74 = load ptr, ptr %73, align 8
  %75 = load i32, ptr %19, align 4
  %76 = sext i32 %75 to i64
  %77 = getelementptr inbounds i8, ptr %74, i64 %76
  store ptr %77, ptr %21, align 8
  %78 = load ptr, ptr %14, align 8
  %79 = getelementptr inbounds %struct.SurfaceDataRasInfo, ptr %78, i32 0, i32 9
  %80 = load ptr, ptr %79, align 8
  %81 = load i32, ptr %19, align 4
  %82 = sext i32 %81 to i64
  %83 = getelementptr inbounds i8, ptr %80, i64 %82
  store ptr %83, ptr %22, align 8
  %84 = load ptr, ptr %14, align 8
  %85 = getelementptr inbounds %struct.SurfaceDataRasInfo, ptr %84, i32 0, i32 10
  %86 = load ptr, ptr %85, align 8
  %87 = load i32, ptr %19, align 4
  %88 = sext i32 %87 to i64
  %89 = getelementptr inbounds i8, ptr %86, i64 %88
  store ptr %89, ptr %23, align 8
  %90 = load ptr, ptr %14, align 8
  %91 = getelementptr inbounds %struct.SurfaceDataRasInfo, ptr %90, i32 0, i32 0
  %92 = getelementptr inbounds %struct.SurfaceDataBounds, ptr %91, i32 0, i32 0
  %93 = load i32, ptr %92, align 8
  %94 = and i32 %93, 7
  store i32 %94, ptr %18, align 4
  br label %95

95:                                               ; preds = %71
  br label %96

96:                                               ; preds = %235, %95
  br label %97

97:                                               ; preds = %96
  %98 = load ptr, ptr %17, align 8
  %99 = load ptr, ptr %25, align 8
  %100 = getelementptr inbounds i16, ptr %99, i64 0
  %101 = load i16, ptr %100, align 2
  %102 = zext i16 %101 to i32
  %103 = and i32 %102, 4095
  %104 = sext i32 %103 to i64
  %105 = getelementptr inbounds i32, ptr %98, i64 %104
  %106 = load i32, ptr %105, align 4
  %107 = trunc i32 %106 to i8
  %108 = zext i8 %107 to i32
  store i32 %108, ptr %32, align 4
  store i32 %108, ptr %31, align 4
  store i32 %108, ptr %30, align 4
  br label %109

109:                                              ; preds = %97
  %110 = load i32, ptr %30, align 4
  %111 = icmp eq i32 %110, 0
  br i1 %111, label %115, label %112

112:                                              ; preds = %109
  %113 = load i32, ptr %30, align 4
  %114 = icmp eq i32 %113, 255
  br i1 %114, label %115, label %130

115:                                              ; preds = %112, %109
  %116 = load i32, ptr %31, align 4
  %117 = icmp eq i32 %116, 0
  br i1 %117, label %121, label %118

118:                                              ; preds = %115
  %119 = load i32, ptr %31, align 4
  %120 = icmp eq i32 %119, 255
  br i1 %120, label %121, label %130

121:                                              ; preds = %118, %115
  %122 = load i32, ptr %32, align 4
  %123 = icmp eq i32 %122, 0
  br i1 %123, label %127, label %124

124:                                              ; preds = %121
  %125 = load i32, ptr %32, align 4
  %126 = icmp eq i32 %125, 255
  br i1 %126, label %127, label %130

127:                                              ; preds = %124, %121
  %128 = load i32, ptr %20, align 4
  %129 = icmp ne i32 %128, 0
  br i1 %129, label %155, label %130

130:                                              ; preds = %127, %124, %118, %112
  %131 = load ptr, ptr %21, align 8
  %132 = load i32, ptr %18, align 4
  %133 = sext i32 %132 to i64
  %134 = getelementptr inbounds i8, ptr %131, i64 %133
  %135 = load i8, ptr %134, align 1
  %136 = sext i8 %135 to i32
  %137 = load i32, ptr %30, align 4
  %138 = add nsw i32 %137, %136
  store i32 %138, ptr %30, align 4
  %139 = load ptr, ptr %22, align 8
  %140 = load i32, ptr %18, align 4
  %141 = sext i32 %140 to i64
  %142 = getelementptr inbounds i8, ptr %139, i64 %141
  %143 = load i8, ptr %142, align 1
  %144 = sext i8 %143 to i32
  %145 = load i32, ptr %31, align 4
  %146 = add nsw i32 %145, %144
  store i32 %146, ptr %31, align 4
  %147 = load ptr, ptr %23, align 8
  %148 = load i32, ptr %18, align 4
  %149 = sext i32 %148 to i64
  %150 = getelementptr inbounds i8, ptr %147, i64 %149
  %151 = load i8, ptr %150, align 1
  %152 = sext i8 %151 to i32
  %153 = load i32, ptr %32, align 4
  %154 = add nsw i32 %153, %152
  store i32 %154, ptr %32, align 4
  br label %155

155:                                              ; preds = %130, %127
  br label %156

156:                                              ; preds = %155
  %157 = load i32, ptr %30, align 4
  %158 = load i32, ptr %31, align 4
  %159 = or i32 %157, %158
  %160 = load i32, ptr %32, align 4
  %161 = or i32 %159, %160
  %162 = ashr i32 %161, 8
  %163 = icmp ne i32 %162, 0
  br i1 %163, label %164, label %198

164:                                              ; preds = %156
  br label %165

165:                                              ; preds = %164
  %166 = load i32, ptr %30, align 4
  %167 = ashr i32 %166, 8
  %168 = icmp ne i32 %167, 0
  br i1 %168, label %169, label %174

169:                                              ; preds = %165
  %170 = load i32, ptr %30, align 4
  %171 = ashr i32 %170, 31
  %172 = xor i32 %171, -1
  %173 = and i32 %172, 255
  store i32 %173, ptr %30, align 4
  br label %174

174:                                              ; preds = %169, %165
  br label %175

175:                                              ; preds = %174
  br label %176

176:                                              ; preds = %175
  %177 = load i32, ptr %31, align 4
  %178 = ashr i32 %177, 8
  %179 = icmp ne i32 %178, 0
  br i1 %179, label %180, label %185

180:                                              ; preds = %176
  %181 = load i32, ptr %31, align 4
  %182 = ashr i32 %181, 31
  %183 = xor i32 %182, -1
  %184 = and i32 %183, 255
  store i32 %184, ptr %31, align 4
  br label %185

185:                                              ; preds = %180, %176
  br label %186

186:                                              ; preds = %185
  br label %187

187:                                              ; preds = %186
  %188 = load i32, ptr %32, align 4
  %189 = ashr i32 %188, 8
  %190 = icmp ne i32 %189, 0
  br i1 %190, label %191, label %196

191:                                              ; preds = %187
  %192 = load i32, ptr %32, align 4
  %193 = ashr i32 %192, 31
  %194 = xor i32 %193, -1
  %195 = and i32 %194, 255
  store i32 %195, ptr %32, align 4
  br label %196

196:                                              ; preds = %191, %187
  br label %197

197:                                              ; preds = %196
  br label %198

198:                                              ; preds = %197, %156
  br label %199

199:                                              ; preds = %198
  %200 = load ptr, ptr %24, align 8
  %201 = load i32, ptr %30, align 4
  %202 = trunc i32 %201 to i8
  %203 = zext i8 %202 to i32
  %204 = ashr i32 %203, 3
  %205 = shl i32 %204, 10
  %206 = load i32, ptr %31, align 4
  %207 = trunc i32 %206 to i8
  %208 = zext i8 %207 to i32
  %209 = ashr i32 %208, 3
  %210 = shl i32 %209, 5
  %211 = add nsw i32 %205, %210
  %212 = load i32, ptr %32, align 4
  %213 = trunc i32 %212 to i8
  %214 = zext i8 %213 to i32
  %215 = ashr i32 %214, 3
  %216 = add nsw i32 %211, %215
  %217 = sext i32 %216 to i64
  %218 = getelementptr inbounds i8, ptr %200, i64 %217
  %219 = load i8, ptr %218, align 1
  %220 = load ptr, ptr %26, align 8
  %221 = getelementptr inbounds i8, ptr %220, i64 0
  store i8 %219, ptr %221, align 1
  br label %222

222:                                              ; preds = %199
  br label %223

223:                                              ; preds = %222
  %224 = load ptr, ptr %25, align 8
  %225 = ptrtoint ptr %224 to i64
  %226 = add nsw i64 %225, 2
  %227 = inttoptr i64 %226 to ptr
  store ptr %227, ptr %25, align 8
  %228 = load ptr, ptr %26, align 8
  %229 = ptrtoint ptr %228 to i64
  %230 = add nsw i64 %229, 1
  %231 = inttoptr i64 %230 to ptr
  store ptr %231, ptr %26, align 8
  %232 = load i32, ptr %18, align 4
  %233 = add nsw i32 %232, 1
  %234 = and i32 %233, 7
  store i32 %234, ptr %18, align 4
  br label %235

235:                                              ; preds = %223
  %236 = load i32, ptr %29, align 4
  %237 = add i32 %236, -1
  store i32 %237, ptr %29, align 4
  %238 = icmp ugt i32 %237, 0
  br i1 %238, label %96, label %239, !llvm.loop !13

239:                                              ; preds = %235
  %240 = load ptr, ptr %25, align 8
  %241 = ptrtoint ptr %240 to i64
  %242 = load i32, ptr %27, align 4
  %243 = sext i32 %242 to i64
  %244 = add nsw i64 %241, %243
  %245 = inttoptr i64 %244 to ptr
  store ptr %245, ptr %25, align 8
  %246 = load ptr, ptr %26, align 8
  %247 = ptrtoint ptr %246 to i64
  %248 = load i32, ptr %28, align 4
  %249 = sext i32 %248 to i64
  %250 = add nsw i64 %247, %249
  %251 = inttoptr i64 %250 to ptr
  store ptr %251, ptr %26, align 8
  %252 = load i32, ptr %19, align 4
  %253 = add nsw i32 %252, 8
  %254 = and i32 %253, 56
  store i32 %254, ptr %19, align 4
  br label %255

255:                                              ; preds = %239
  %256 = load i32, ptr %12, align 4
  %257 = add i32 %256, -1
  store i32 %257, ptr %12, align 4
  %258 = icmp ugt i32 %257, 0
  br i1 %258, label %69, label %259, !llvm.loop !14

259:                                              ; preds = %255
  br label %260

260:                                              ; preds = %259
  ret void
}