; Function Attrs: nofree norecurse nosync nounwind memory(readwrite, inaccessiblemem: none) uwtable
define hidden void @Index12GrayToByteIndexedConvert(ptr noundef %0, ptr noundef %1, i32 noundef %2, i32 noundef %3, ptr nocapture noundef readonly %4, ptr nocapture noundef readonly %5, ptr nocapture readnone %6, ptr nocapture readnone %7) #0 {
  %9 = getelementptr inbounds i8, ptr %4, i64 40
  %10 = load ptr, ptr %9, align 8
  %11 = getelementptr inbounds i8, ptr %4, i64 32
  %12 = load i32, ptr %11, align 8
  %13 = getelementptr inbounds i8, ptr %5, i64 32
  %14 = load i32, ptr %13, align 8
  %15 = getelementptr inbounds i8, ptr %5, i64 4
  %16 = load i32, ptr %15, align 4
  %17 = shl i32 %16, 3
  %18 = getelementptr inbounds i8, ptr %5, i64 48
  %19 = load ptr, ptr %18, align 8
  %20 = getelementptr inbounds i8, ptr %5, i64 88
  %21 = load i32, ptr %20, align 8
  %22 = shl i32 %2, 1
  %23 = sub i32 %12, %22
  %24 = sub i32 %14, %2
  %25 = sext i32 %23 to i64
  %26 = getelementptr inbounds i8, ptr %5, i64 56
  %27 = getelementptr inbounds i8, ptr %5, i64 64
  %28 = getelementptr inbounds i8, ptr %5, i64 72
  %.not = icmp eq i32 %21, 0
  %29 = sext i32 %24 to i64
  br label %30

30:                                               ; preds = %90, %8
  %.080.in = phi i32 [ %17, %8 ], [ %95, %90 ]
  %.078 = phi i32 [ %3, %8 ], [ %96, %90 ]
  %.076 = phi ptr [ %0, %8 ], [ %92, %90 ]
  %.074 = phi ptr [ %1, %8 ], [ %94, %90 ]
  %.080 = and i32 %.080.in, 56
  %31 = load ptr, ptr %26, align 8
  %32 = zext nneg i32 %.080 to i64
  %33 = getelementptr inbounds i8, ptr %31, i64 %32
  %34 = load ptr, ptr %27, align 8
  %35 = getelementptr inbounds i8, ptr %34, i64 %32
  %36 = load ptr, ptr %28, align 8
  %37 = getelementptr inbounds i8, ptr %36, i64 %32
  %38 = load i32, ptr %5, align 8
  br label %39

39:                                               ; preds = %71, %30
  %.079.in = phi i32 [ %38, %30 ], [ %88, %71 ]
  %.177 = phi ptr [ %.076, %30 ], [ %84, %71 ]
  %.175 = phi ptr [ %.074, %30 ], [ %87, %71 ]
  %.073 = phi i32 [ %2, %30 ], [ %89, %71 ]
  %.079 = and i32 %.079.in, 7
  %40 = load i16, ptr %.177, align 2
  %41 = and i16 %40, 4095
  %42 = zext nneg i16 %41 to i64
  %43 = getelementptr inbounds i32, ptr %10, i64 %42
  %44 = load i32, ptr %43, align 4
  %45 = and i32 %44, 255
  %trunc = trunc i32 %44 to i8
  switch i8 %trunc, label %47 [
    i8 -1, label %46
    i8 0, label %46
  ]

46:                                               ; preds = %39, %39
  br i1 %.not, label %47, label %61

47:                                               ; preds = %39, %46
  %48 = zext nneg i32 %.079 to i64
  %49 = getelementptr inbounds i8, ptr %33, i64 %48
  %50 = load i8, ptr %49, align 1
  %51 = sext i8 %50 to i32
  %52 = add nsw i32 %45, %51
  %53 = getelementptr inbounds i8, ptr %35, i64 %48
  %54 = load i8, ptr %53, align 1
  %55 = sext i8 %54 to i32
  %56 = add nsw i32 %45, %55
  %57 = getelementptr inbounds i8, ptr %37, i64 %48
  %58 = load i8, ptr %57, align 1
  %59 = sext i8 %58 to i32
  %60 = add nsw i32 %45, %59
  br label %61

61:                                               ; preds = %47, %46
  %.070 = phi i32 [ %45, %46 ], [ %52, %47 ]
  %.068 = phi i32 [ %45, %46 ], [ %56, %47 ]
  %.0 = phi i32 [ %45, %46 ], [ %60, %47 ]
  %62 = or i32 %.068, %.070
  %63 = or i32 %62, %.0
  %.not83 = icmp ult i32 %63, 256
  br i1 %.not83, label %71, label %64

64:                                               ; preds = %61
  %65 = tail call i32 @llvm.smax.i32(i32 %.070, i32 0)
  %66 = tail call i32 @llvm.umin.i32(i32 %65, i32 255)
  %67 = tail call i32 @llvm.smax.i32(i32 %.068, i32 0)
  %68 = tail call i32 @llvm.umin.i32(i32 %67, i32 255)
  %.not87 = icmp ult i32 %.0, 256
  br i1 %.not87, label %71, label %69

69:                                               ; preds = %64
  %isnotneg.inv88 = icmp slt i32 %.0, 0
  %70 = select i1 %isnotneg.inv88, i32 0, i32 255
  br label %71

71:                                               ; preds = %61, %64, %69
  %.272 = phi i32 [ %66, %69 ], [ %66, %64 ], [ %.070, %61 ]
  %.2 = phi i32 [ %68, %69 ], [ %68, %64 ], [ %.068, %61 ]
  %.1 = phi i32 [ %70, %69 ], [ %.0, %64 ], [ %.0, %61 ]
  %72 = shl nsw i32 %.272, 7
  %73 = and i32 %72, 31744
  %74 = shl nsw i32 %.2, 2
  %75 = and i32 %74, 992
  %76 = or disjoint i32 %75, %73
  %77 = lshr i32 %.1, 3
  %78 = or disjoint i32 %76, %77
  %79 = zext nneg i32 %78 to i64
  %80 = getelementptr inbounds i8, ptr %19, i64 %79
  %81 = load i8, ptr %80, align 1
  store i8 %81, ptr %.175, align 1
  %82 = ptrtoint ptr %.177 to i64
  %83 = add nsw i64 %82, 2
  %84 = inttoptr i64 %83 to ptr
  %85 = ptrtoint ptr %.175 to i64
  %86 = add nsw i64 %85, 1
  %87 = inttoptr i64 %86 to ptr
  %88 = add nuw nsw i32 %.079, 1
  %89 = add i32 %.073, -1
  %.not89 = icmp eq i32 %89, 0
  br i1 %.not89, label %90, label %39, !llvm.loop !13

90:                                               ; preds = %71
  %91 = add nsw i64 %83, %25
  %92 = inttoptr i64 %91 to ptr
  %93 = add nsw i64 %86, %29
  %94 = inttoptr i64 %93 to ptr
  %95 = add nuw nsw i32 %.080, 8
  %96 = add i32 %.078, -1
  %.not90 = icmp eq i32 %96, 0
  br i1 %.not90, label %97, label %30, !llvm.loop !14

97:                                               ; preds = %90
  ret void
}